; Function Attrs: mustprogress nounwind uwtable
define hidden void @_ZN8ZWorkers18set_active_workersEj(ptr noundef nonnull align 8 dereferenceable(184) %0, i32 noundef %1) local_unnamed_addr #0 align 2 {
  %3 = load volatile ptr, ptr getelementptr inbounds (i8, ptr @_ZN16LogTagSetMappingILN6LogTag4typeE49ELS1_158ELS1_0ELS1_0ELS1_0ELS1_0EE7_tagsetE, i64 64), align 8
  %.not = icmp eq ptr %3, null
  br i1 %.not, label %_ZN7ZLockerI5ZLockED2Ev.exit, label %4

4:                                                ; preds = %2
  %5 = getelementptr inbounds i8, ptr %0, i64 120
  %6 = load ptr, ptr %5, align 8
  tail call void (ptr, ...) @_ZN7LogImplILN6LogTag4typeE49ELS1_158ELS1_0ELS1_0ELS1_0ELS1_0EE5writeILN8LogLevel4typeE3EEEvPKcz(ptr noundef nonnull @.str.7, i32 noundef %1, ptr noundef %6)
  br label %_ZN7ZLockerI5ZLockED2Ev.exit

_ZN7ZLockerI5ZLockED2Ev.exit:                     ; preds = %2, %4
  %7 = getelementptr inbounds i8, ptr %0, i64 128
  %8 = tail call i32 @pthread_mutex_lock(ptr noundef nonnull %7) #8
  %9 = tail call noundef i32 @_ZN13WorkerThreads18set_active_workersEj(ptr noundef nonnull align 8 dereferenceable(120) %0, i32 noundef %1) #8
  %10 = tail call i32 @pthread_mutex_unlock(ptr noundef nonnull %7) #8
  ret void
}